; Function Attrs: mustprogress nofree norecurse nosync nounwind willreturn memory(read, inaccessiblemem: none) uwtable
define hidden { <2 x float>, <2 x float> } @b2GetBodyTransformQuick(ptr noundef readonly captures(none) %0, ptr noundef readonly captures(none) %1) local_unnamed_addr #4 {
  %3 = getelementptr inbounds nuw i8, ptr %0, i64 1072
  %4 = getelementptr inbounds nuw i8, ptr %1, i64 40
  %5 = load i32, ptr %4, align 8, !tbaa !19
  %.val = load ptr, ptr %3, align 8, !tbaa !24
  %6 = sext i32 %5 to i64
  %7 = getelementptr inbounds %struct.b2SolverSet, ptr %.val, i64 %6
  %8 = getelementptr inbounds nuw i8, ptr %1, i64 44
  %9 = load i32, ptr %8, align 4, !tbaa !27
  %.val5 = load ptr, ptr %7, align 8, !tbaa !14
  %10 = sext i32 %9 to i64
  %11 = getelementptr inbounds %struct.b2BodySim, ptr %.val5, i64 %10
  %.sroa.0.0.copyload = load <2 x float>, ptr %11, align 4
  %.sroa.2.0..sroa_idx = getelementptr inbounds nuw i8, ptr %11, i64 8
  %.sroa.2.0.copyload = load <2 x float>, ptr %.sroa.2.0..sroa_idx, align 4
  %.fca.0.insert = insertvalue { <2 x float>, <2 x float> } poison, <2 x float> %.sroa.0.0.copyload, 0
  %.fca.1.insert = insertvalue { <2 x float>, <2 x float> } %.fca.0.insert, <2 x float> %.sroa.2.0.copyload, 1
  ret { <2 x float>, <2 x float> } %.fca.1.insert
}